target datalayout = "e-m:e-p270:32:32-p271:32:32-p272:64:64-i64:64-i128:128-f80:128-n8:16:32:64-S128"
target triple = "x86_64-pc-linux-gnu"

%struct.AVProbeData = type { ptr, ptr, i32, ptr }

; Function Attrs: inlinehint nounwind willreturn memory(none) uwtable
define internal i64 @av_bswap64(i64 noundef %0) #2 {
  %2 = alloca i64, align 8
  store i64 %0, ptr %2, align 8, !tbaa !36
  %3 = load i64, ptr %2, align 8, !tbaa !36
  %4 = trunc i64 %3 to i32
  %5 = call i32 @av_bswap32(i32 noundef %4) #10
  %6 = zext i32 %5 to i64
  %7 = shl i64 %6, 32
  %8 = load i64, ptr %2, align 8, !tbaa !36
  %9 = lshr i64 %8, 32
  %10 = trunc i64 %9 to i32
  %11 = call i32 @av_bswap32(i32 noundef %10) #10
  %12 = zext i32 %11 to i64
  %13 = or i64 %7, %12
  ret i64 %13
}

; Function Attrs: alwaysinline nounwind willreturn memory(none) uwtable
define internal zeroext i16 @av_bswap16(i16 noundef zeroext %0) #1 {
  %2 = alloca i16, align 2
  store i16 %0, ptr %2, align 2, !tbaa !89
  %3 = load i16, ptr %2, align 2, !tbaa !89
  %4 = zext i16 %3 to i32
  %5 = ashr i32 %4, 8
  %6 = load i16, ptr %2, align 2, !tbaa !89
  %7 = zext i16 %6 to i32
  %8 = shl i32 %7, 8
  %9 = or i32 %5, %8
  %10 = trunc i32 %9 to i16
  store i16 %10, ptr %2, align 2, !tbaa !89
  %11 = load i16, ptr %2, align 2, !tbaa !89
  ret i16 %11
}

; Function Attrs: alwaysinline nounwind willreturn memory(none) uwtable
define internal i32 @av_bswap32(i32 noundef %0) #1 {
  %2 = alloca i32, align 4
  store i32 %0, ptr %2, align 4, !tbaa !35
  %3 = load i32, ptr %2, align 4, !tbaa !35
  %4 = shl i32 %3, 8
  %5 = and i32 %4, 65280
  %6 = load i32, ptr %2, align 4, !tbaa !35
  %7 = lshr i32 %6, 8
  %8 = and i32 %7, 255
  %9 = or i32 %5, %8
  %10 = shl i32 %9, 16
  %11 = load i32, ptr %2, align 4, !tbaa !35
  %12 = lshr i32 %11, 16
  %13 = shl i32 %12, 8
  %14 = and i32 %13, 65280
  %15 = load i32, ptr %2, align 4, !tbaa !35
  %16 = lshr i32 %15, 16
  %17 = lshr i32 %16, 8
  %18 = and i32 %17, 255
  %19 = or i32 %14, %18
  %20 = or i32 %10, %19
  ret i32 %20
}

; Function Attrs: nounwind uwtable
define internal i32 @probe(ptr noundef %0) #0 {
  %2 = alloca i32, align 4
  %3 = alloca ptr, align 8
  store ptr %0, ptr %3, align 8, !tbaa !4
  %4 = load ptr, ptr %3, align 8, !tbaa !4
  %5 = getelementptr inbounds nuw %struct.AVProbeData, ptr %4, i32 0, i32 1
  %6 = load ptr, ptr %5, align 8, !tbaa !9
  %7 = load i32, ptr %6, align 1, !tbaa !13
  %8 = call i32 @av_bswap32(i32 noundef %7) #10
  %9 = icmp ne i32 %8, 1667327590
  br i1 %9, label %10, label %11

10:                                               ; preds = %1
  store i32 0, ptr %2, align 4
  br label %40

11:                                               ; preds = %1
  %12 = load ptr, ptr %3, align 8, !tbaa !4
  %13 = getelementptr inbounds nuw %struct.AVProbeData, ptr %12, i32 0, i32 1
  %14 = load ptr, ptr %13, align 8, !tbaa !9
  %15 = getelementptr inbounds i8, ptr %14, i64 4
  %16 = load i16, ptr %15, align 1, !tbaa !13
  %17 = call zeroext i16 @av_bswap16(i16 noundef zeroext %16) #10
  %18 = zext i16 %17 to i32
  %19 = icmp ne i32 %18, 1
  br i1 %19, label %20, label %21

20:                                               ; preds = %11
  store i32 0, ptr %2, align 4
  br label %40

21:                                               ; preds = %11
  %22 = load ptr, ptr %3, align 8, !tbaa !4
  %23 = getelementptr inbounds nuw %struct.AVProbeData, ptr %22, i32 0, i32 1
  %24 = load ptr, ptr %23, align 8, !tbaa !9
  %25 = getelementptr inbounds i8, ptr %24, i64 8
  %26 = load i32, ptr %25, align 1, !tbaa !13
  %27 = call i32 @av_bswap32(i32 noundef %26) #10
  %28 = icmp ne i32 %27, 1684370275
  br i1 %28, label %29, label %30

29:                                               ; preds = %21
  store i32 0, ptr %2, align 4
  br label %40

30:                                               ; preds = %21
  %31 = load ptr, ptr %3, align 8, !tbaa !4
  %32 = getelementptr inbounds nuw %struct.AVProbeData, ptr %31, i32 0, i32 1
  %33 = load ptr, ptr %32, align 8, !tbaa !9
  %34 = getelementptr inbounds i8, ptr %33, i64 12
  %35 = load i64, ptr %34, align 1, !tbaa !13
  %36 = call i64 @av_bswap64(i64 noundef %35) #10
  %37 = icmp ne i64 %36, 32
  br i1 %37, label %38, label %39

38:                                               ; preds = %30
  store i32 0, ptr %2, align 4
  br label %40

39:                                               ; preds = %30
  store i32 100, ptr %2, align 4
  br label %40

40:                                               ; preds = %39, %38, %29, %20, %10
  %41 = load i32, ptr %2, align 4
  ret i32 %41
}