; Function Attrs: mustprogress nofree norecurse nosync nounwind willreturn memory(read, inaccessiblemem: none) uwtable
define internal range(i32 0, 101) i32 @probe(ptr noundef readonly captures(none) %0) #0 {
  %2 = getelementptr inbounds nuw i8, ptr %0, i64 8
  %3 = load ptr, ptr %2, align 8, !tbaa !4
  %4 = load i32, ptr %3, align 1, !tbaa !11
  %.not = icmp eq i32 %4, 1717985635
  br i1 %.not, label %5, label %14

5:                                                ; preds = %1
  %6 = getelementptr inbounds nuw i8, ptr %3, i64 4
  %7 = load i16, ptr %6, align 1, !tbaa !11
  %.not4 = icmp eq i16 %7, 256
  br i1 %.not4, label %8, label %14

8:                                                ; preds = %5
  %9 = getelementptr inbounds nuw i8, ptr %3, i64 8
  %10 = load i32, ptr %9, align 1, !tbaa !11
  %.not5 = icmp eq i32 %10, 1668506980
  br i1 %.not5, label %11, label %14

11:                                               ; preds = %8
  %12 = getelementptr inbounds nuw i8, ptr %3, i64 12
  %13 = load i64, ptr %12, align 1, !tbaa !11
  %.not6 = icmp eq i64 %13, 2305843009213693952
  %. = select i1 %.not6, i32 100, i32 0
  br label %14

14:                                               ; preds = %11, %8, %5, %1
  %.0 = phi i32 [ 0, %1 ], [ 0, %5 ], [ 0, %8 ], [ %., %11 ]
  ret i32 %.0
}